; ModuleID = 'source-C-CXX/31/350.c'
source_filename = "source-C-CXX/31/350.c"
target datalayout = "e-m:e-p270:32:32-p271:32:32-p272:64:64-i64:64-f80:128-n8:16:32:64-S128"
target triple = "x86_64-pc-linux-gnu"

@.str = private unnamed_addr constant [3 x i8] c"%d\00", align 1
@.str.1 = private unnamed_addr constant [6 x i8] c"%s %s\00", align 1

; Function Attrs: nofree nounwind sspstrong uwtable
define dso_local void @main() local_unnamed_addr #0 {
  %1 = alloca [100 x i8], align 16
  %2 = alloca [100 x i8], align 16
  %3 = alloca i32, align 4
  %4 = getelementptr inbounds [100 x i8], [100 x i8]* %1, i64 0, i64 0
  call void @llvm.lifetime.start.p0i8(i64 100, i8* nonnull %4) #5
  %5 = getelementptr inbounds [100 x i8], [100 x i8]* %2, i64 0, i64 0
  call void @llvm.lifetime.start.p0i8(i64 100, i8* nonnull %5) #5
  %6 = bitcast i32* %3 to i8*
  call void @llvm.lifetime.start.p0i8(i64 4, i8* nonnull %6) #5
  %7 = call i32 (i8*, ...) @__isoc99_scanf(i8* getelementptr inbounds ([3 x i8], [3 x i8]* @.str, i64 0, i64 0), i32* nonnull %3)
  %8 = load i32, i32* %3, align 4, !tbaa !5
  %9 = icmp sgt i32 %8, 0
  br i1 %9, label %10, label %64

10:                                               ; preds = %0, %59
  %11 = phi i32 [ %61, %59 ], [ 0, %0 ]
  %12 = call i32 (i8*, ...) @__isoc99_scanf(i8* getelementptr inbounds ([6 x i8], [6 x i8]* @.str.1, i64 0, i64 0), i8* nonnull %4, i8* nonnull %5)
  %13 = call i64 @strlen(i8* noundef nonnull %4) #6
  %14 = trunc i64 %13 to i32
  %15 = call i64 @strlen(i8* noundef nonnull %5) #6
  %16 = trunc i64 %15 to i32
  %17 = icmp sge i32 %14, %16
  %18 = icmp sgt i32 %16, -1
  %19 = and i1 %17, %18
  br i1 %19, label %20, label %47

20:                                               ; preds = %10
  %21 = shl i64 %13, 32
  %22 = ashr exact i64 %21, 32
  %23 = and i64 %15, 4294967295
  br label %24

24:                                               ; preds = %20, %43
  %25 = phi i64 [ %23, %20 ], [ %46, %43 ]
  %26 = phi i64 [ %22, %20 ], [ %44, %43 ]
  %27 = getelementptr inbounds [100 x i8], [100 x i8]* %1, i64 0, i64 %26
  %28 = load i8, i8* %27, align 1, !tbaa !9
  %29 = getelementptr inbounds [100 x i8], [100 x i8]* %2, i64 0, i64 %25
  %30 = load i8, i8* %29, align 1, !tbaa !9
  %31 = icmp slt i8 %28, %30
  br i1 %31, label %32, label %39

32:                                               ; preds = %24
  %33 = add i8 %28, 58
  %34 = sub i8 %33, %30
  store i8 %34, i8* %27, align 1, !tbaa !9
  %35 = add nsw i64 %26, -1
  %36 = getelementptr inbounds [100 x i8], [100 x i8]* %1, i64 0, i64 %35
  %37 = load i8, i8* %36, align 1, !tbaa !9
  %38 = add i8 %37, -1
  store i8 %38, i8* %36, align 1, !tbaa !9
  br label %43

39:                                               ; preds = %24
  %40 = add i8 %28, 48
  %41 = sub i8 %40, %30
  store i8 %41, i8* %27, align 1, !tbaa !9
  %42 = add nsw i64 %26, -1
  br label %43

43:                                               ; preds = %39, %32
  %44 = phi i64 [ %42, %39 ], [ %35, %32 ]
  %45 = icmp sgt i64 %25, 0
  %46 = add nsw i64 %25, -1
  br i1 %45, label %24, label %47

47:                                               ; preds = %43, %10
  %48 = icmp sgt i32 %14, 0
  br i1 %48, label %49, label %59

49:                                               ; preds = %47
  %50 = and i64 %13, 4294967295
  br label %51

51:                                               ; preds = %49, %51
  %52 = phi i64 [ 0, %49 ], [ %57, %51 ]
  %53 = getelementptr inbounds [100 x i8], [100 x i8]* %1, i64 0, i64 %52
  %54 = load i8, i8* %53, align 1, !tbaa !9
  %55 = sext i8 %54 to i32
  %56 = call i32 @putchar(i32 %55)
  %57 = add nuw nsw i64 %52, 1
  %58 = icmp eq i64 %57, %50
  br i1 %58, label %59, label %51, !llvm.loop !10

59:                                               ; preds = %51, %47
  %60 = call i32 @putchar(i32 10)
  %61 = add nuw nsw i32 %11, 1
  %62 = load i32, i32* %3, align 4, !tbaa !5
  %63 = icmp slt i32 %61, %62
  br i1 %63, label %10, label %64, !llvm.loop !12

64:                                               ; preds = %59, %0
  call void @llvm.lifetime.end.p0i8(i64 4, i8* nonnull %6) #5
  call void @llvm.lifetime.end.p0i8(i64 100, i8* nonnull %5) #5
  call void @llvm.lifetime.end.p0i8(i64 100, i8* nonnull %4) #5
  ret void
}

; Function Attrs: argmemonly mustprogress nofree nosync nounwind willreturn
declare void @llvm.lifetime.start.p0i8(i64 immarg, i8* nocapture) #1

; Function Attrs: nofree nounwind
declare noundef i32 @__isoc99_scanf(i8* nocapture noundef readonly, ...) local_unnamed_addr #2

; Function Attrs: argmemonly mustprogress nofree nounwind readonly willreturn
declare i64 @strlen(i8* nocapture) local_unnamed_addr #3

; Function Attrs: argmemonly mustprogress nofree nosync nounwind willreturn
declare void @llvm.lifetime.end.p0i8(i64 immarg, i8* nocapture) #1

; Function Attrs: nofree nounwind
declare noundef i32 @putchar(i32 noundef) local_unnamed_addr #4


!llvm.module.flags = !{!0, !1, !2, !3}
!llvm.ident = !{!4}

!0 = !{i32 1, !"wchar_size", i32 4}
!1 = !{i32 7, !"PIC Level", i32 2}
!2 = !{i32 7, !"PIE Level", i32 2}
!3 = !{i32 7, !"uwtable", i32 1}
!4 = !{!"clang version 13.0.0"}
!5 = !{!6, !6, i64 0}
!6 = !{!"int", !7, i64 0}
!7 = !{!"omnipotent char", !8, i64 0}
!8 = !{!"Simple C/C++ TBAA"}
!9 = !{!7, !7, i64 0}
!10 = distinct !{!10, !11}
!11 = !{!"llvm.loop.mustprogress"}
!12 = distinct !{!12, !11}
